; Function Attrs: mustprogress uwtable
define void @_ZN3gmx10TextWriter9writeLineERKNSt7__cxx1112basic_stringIcSt11char_traitsIcESaIcEEE(ptr noundef nonnull readonly align 8 captures(none) dereferenceable(8) %0, ptr noundef nonnull align 8 dereferenceable(32) %1) local_unnamed_addr #0 align 2 {
  %3 = load ptr, ptr %0, align 8, !tbaa !4
  tail call void @_ZN3gmx10TextWriter4Impl18writeWrappedStringERKNSt7__cxx1112basic_stringIcSt11char_traitsIcESaIcEEE(ptr noundef nonnull align 8 dereferenceable(41) %3, ptr noundef nonnull align 8 dereferenceable(32) %1)
  %4 = load ptr, ptr %0, align 8, !tbaa !4
  %5 = getelementptr inbounds nuw i8, ptr %4, i64 32
  %6 = load i32, ptr %5, align 8, !tbaa !26
  %7 = icmp eq i32 %6, 0
  br i1 %7, label %8, label %_ZN3gmx10TextWriter15ensureLineBreakEv.exit

8:                                                ; preds = %2
  tail call void @_ZN3gmx10TextWriter4Impl14writeRawStringEPKc(ptr noundef nonnull align 8 dereferenceable(41) %4, ptr noundef nonnull @.str)
  br label %_ZN3gmx10TextWriter15ensureLineBreakEv.exit

_ZN3gmx10TextWriter15ensureLineBreakEv.exit:      ; preds = %2, %8
  ret void
}